(dp0
I0
S'chris'
p1
sI1
S'hannah'
p2
sI2
S's1'
p3
sI3
S's1 - Copy'
p4
sI4
S's1 - Copy (2)'
p5
sI5
S's1 - Copy (3)'
p6
sI6
S's10'
p7
sI7
S's10 - Copy'
p8
sI8
S's10 - Copy (2)'
p9
sI9
S's10 - Copy (3)'
p10
sI10
S's11'
p11
sI11
S's11 - Copy'
p12
sI12
S's11 - Copy (2)'
p13
sI13
S's11 - Copy (3)'
p14
sI14
S's12'
p15
sI15
S's12 - Copy'
p16
sI16
S's12 - Copy (2)'
p17
sI17
S's12 - Copy (3)'
p18
sI18
S's13'
p19
sI19
S's13 - Copy'
p20
sI20
S's13 - Copy (2)'
p21
sI21
S's13 - Copy (3)'
p22
sI22
S's14'
p23
sI23
S's14 - Copy'
p24
sI24
S's14 - Copy (2)'
p25
sI25
S's14 - Copy (3)'
p26
sI26
S's15'
p27
sI27
S's15 - Copy'
p28
sI28
S's15 - Copy (2)'
p29
sI29
S's15 - Copy (3)'
p30
sI30
S's16'
p31
sI31
S's16 - Copy'
p32
sI32
S's16 - Copy (2)'
p33
sI33
S's16 - Copy (3)'
p34
sI34
S's17'
p35
sI35
S's17 - Copy'
p36
sI36
S's17 - Copy (2)'
p37
sI37
S's17 - Copy (3)'
p38
sI38
S's18'
p39
sI39
S's18 - Copy'
p40
sI40
S's18 - Copy (2)'
p41
sI41
S's18 - Copy (3)'
p42
sI42
S's19'
p43
sI43
S's19 - Copy'
p44
sI44
S's19 - Copy (2)'
p45
sI45
S's19 - Copy (3)'
p46
sI46
S's2'
p47
sI47
S's2 - Copy'
p48
sI48
S's2 - Copy (2)'
p49
sI49
S's2 - Copy (3)'
p50
sI50
S's20'
p51
sI51
S's20 - Copy'
p52
sI52
S's20 - Copy (2)'
p53
sI53
S's20 - Copy (3)'
p54
sI54
S's21'
p55
sI55
S's21 - Copy'
p56
sI56
S's21 - Copy (2)'
p57
sI57
S's21 - Copy (3)'
p58
sI58
S's22'
p59
sI59
S's22 - Copy'
p60
sI60
S's22 - Copy (2)'
p61
sI61
S's22 - Copy (3)'
p62
sI62
S's23'
p63
sI63
S's23 - Copy'
p64
sI64
S's23 - Copy (2)'
p65
sI65
S's23 - Copy (3)'
p66
sI66
S's24'
p67
sI67
S's24 - Copy'
p68
sI68
S's24 - Copy (2)'
p69
sI69
S's24 - Copy (3)'
p70
sI70
S's25'
p71
sI71
S's25 - Copy'
p72
sI72
S's25 - Copy (2)'
p73
sI73
S's25 - Copy (3)'
p74
sI74
S's26'
p75
sI75
S's26 - Copy'
p76
sI76
S's26 - Copy (2)'
p77
sI77
S's26 - Copy (3)'
p78
sI78
S's27'
p79
sI79
S's27 - Copy'
p80
sI80
S's27 - Copy (2)'
p81
sI81
S's27 - Copy (3)'
p82
sI82
S's28'
p83
sI83
S's28 - Copy'
p84
sI84
S's28 - Copy (2)'
p85
sI85
S's28 - Copy (3)'
p86
sI86
S's29'
p87
sI87
S's29 - Copy'
p88
sI88
S's29 - Copy (2)'
p89
sI89
S's29 - Copy (3)'
p90
sI90
S's3'
p91
sI91
S's3 - Copy'
p92
sI92
S's3 - Copy (2)'
p93
sI93
S's3 - Copy (3)'
p94
sI94
S's30'
p95
sI95
S's30 - Copy'
p96
sI96
S's30 - Copy (2)'
p97
sI97
S's30 - Copy (3)'
p98
sI98
S's31'
p99
sI99
S's31 - Copy'
p100
sI100
S's31 - Copy (2)'
p101
sI101
S's31 - Copy (3)'
p102
sI102
S's32'
p103
sI103
S's32 - Copy'
p104
sI104
S's32 - Copy (2)'
p105
sI105
S's32 - Copy (3)'
p106
sI106
S's33'
p107
sI107
S's33 - Copy'
p108
sI108
S's33 - Copy (2)'
p109
sI109
S's33 - Copy (3)'
p110
sI110
S's34'
p111
sI111
S's34 - Copy'
p112
sI112
S's34 - Copy (2)'
p113
sI113
S's34 - Copy (3)'
p114
sI114
S's35'
p115
sI115
S's35 - Copy'
p116
sI116
S's35 - Copy (2)'
p117
sI117
S's35 - Copy (3)'
p118
sI118
S's36'
p119
sI119
S's36 - Copy'
p120
sI120
S's36 - Copy (2)'
p121
sI121
S's36 - Copy (3)'
p122
sI122
S's37'
p123
sI123
S's37 - Copy'
p124
sI124
S's37 - Copy (2)'
p125
sI125
S's37 - Copy (3)'
p126
sI126
S's38'
p127
sI127
S's38 - Copy'
p128
sI128
S's38 - Copy (2)'
p129
sI129
S's38 - Copy (3)'
p130
sI130
S's39'
p131
sI131
S's39 - Copy'
p132
sI132
S's39 - Copy (2)'
p133
sI133
S's39 - Copy (3)'
p134
sI134
S's4'
p135
sI135
S's4 - Copy'
p136
sI136
S's4 - Copy (2)'
p137
sI137
S's4 - Copy (3)'
p138
sI138
S's40'
p139
sI139
S's40 - Copy'
p140
sI140
S's40 - Copy (2)'
p141
sI141
S's40 - Copy (3)'
p142
sI142
S's5'
p143
sI143
S's5 - Copy'
p144
sI144
S's5 - Copy (2)'
p145
sI145
S's5 - Copy (3)'
p146
sI146
S's6'
p147
sI147
S's6 - Copy'
p148
sI148
S's6 - Copy (2)'
p149
sI149
S's6 - Copy (3)'
p150
sI150
S's7'
p151
sI151
S's7 - Copy'
p152
sI152
S's7 - Copy (2)'
p153
sI153
S's7 - Copy (3)'
p154
sI154
S's8'
p155
sI155
S's8 - Copy'
p156
sI156
S's8 - Copy (2)'
p157
sI157
S's8 - Copy (3)'
p158
sI158
S's9'
p159
sI159
S's9 - Copy'
p160
sI160
S's9 - Copy (2)'
p161
sI161
S's9 - Copy (3)'
p162
sI162
S'Saman'
p163
sI163
S'sarah'
p164
s.